target datalayout = "e-m:e-p270:32:32-p271:32:32-p272:64:64-i64:64-i128:128-f80:128-n8:16:32:64-S128"
target triple = "x86_64-pc-linux-gnu"

%class.ll_printer = type { ptr, ptr, ptr, i8, i8, %class.arith_util, %"class.datatype::util" }
%class.arith_util = type { ptr, ptr }
%"class.datatype::util" = type { ptr, i32, ptr }

; Function Attrs: mustprogress uwtable
define linkonce_odr hidden void @_ZN10ll_printerC2ERSoR11ast_managerP3astbb(ptr noundef nonnull align 8 dereferenceable(72) %0, ptr noundef nonnull align 8 dereferenceable(8) %1, ptr noundef nonnull align 8 dereferenceable(976) %2, ptr noundef %3, i1 noundef zeroext %4, i1 noundef zeroext %5) unnamed_addr #4 comdat align 2 {
  %7 = alloca ptr, align 8
  %8 = alloca ptr, align 8
  %9 = alloca ptr, align 8
  %10 = alloca ptr, align 8
  %11 = alloca i8, align 1
  %12 = alloca i8, align 1
  store ptr %0, ptr %7, align 8, !tbaa !16
  store ptr %1, ptr %8, align 8, !tbaa !3
  store ptr %2, ptr %9, align 8, !tbaa !8
  store ptr %3, ptr %10, align 8, !tbaa !10
  %13 = zext i1 %4 to i8
  store i8 %13, ptr %11, align 1, !tbaa !12
  %14 = zext i1 %5 to i8
  store i8 %14, ptr %12, align 1, !tbaa !12
  %15 = load ptr, ptr %7, align 8
  %16 = getelementptr inbounds nuw %class.ll_printer, ptr %15, i32 0, i32 0
  %17 = load ptr, ptr %8, align 8, !tbaa !3
  store ptr %17, ptr %16, align 8, !tbaa !3
  %18 = getelementptr inbounds nuw %class.ll_printer, ptr %15, i32 0, i32 1
  %19 = load ptr, ptr %9, align 8, !tbaa !8
  store ptr %19, ptr %18, align 8, !tbaa !8
  %20 = getelementptr inbounds nuw %class.ll_printer, ptr %15, i32 0, i32 2
  %21 = load ptr, ptr %10, align 8, !tbaa !10
  store ptr %21, ptr %20, align 8, !tbaa !18
  %22 = getelementptr inbounds nuw %class.ll_printer, ptr %15, i32 0, i32 3
  %23 = load i8, ptr %11, align 1, !tbaa !12, !range !14, !noundef !15
  %24 = trunc i8 %23 to i1
  %25 = zext i1 %24 to i8
  store i8 %25, ptr %22, align 8, !tbaa !25
  %26 = getelementptr inbounds nuw %class.ll_printer, ptr %15, i32 0, i32 4
  %27 = load i8, ptr %12, align 1, !tbaa !12, !range !14, !noundef !15
  %28 = trunc i8 %27 to i1
  %29 = zext i1 %28 to i8
  store i8 %29, ptr %26, align 1, !tbaa !26
  %30 = getelementptr inbounds nuw %class.ll_printer, ptr %15, i32 0, i32 5
  %31 = load ptr, ptr %9, align 8, !tbaa !8
  call void @_ZN10arith_utilC1ER11ast_manager(ptr noundef nonnull align 8 dereferenceable(16) %30, ptr noundef nonnull align 8 dereferenceable(976) %31)
  %32 = getelementptr inbounds nuw %class.ll_printer, ptr %15, i32 0, i32 6
  %33 = load ptr, ptr %9, align 8, !tbaa !8
  call void @_ZN8datatype4utilC1ER11ast_manager(ptr noundef nonnull align 8 dereferenceable(24) %32, ptr noundef nonnull align 8 dereferenceable(976) %33)
  ret void
}

; Function Attrs: mustprogress uwtable
define hidden void @_Z9ast_ll_ppRSoR11ast_managerP3astbb(ptr noundef nonnull align 8 dereferenceable(8) %0, ptr noundef nonnull align 8 dereferenceable(976) %1, ptr noundef %2, i1 noundef zeroext %3, i1 noundef zeroext %4) #4 {
  %6 = alloca ptr, align 8
  %7 = alloca ptr, align 8
  %8 = alloca ptr, align 8
  %9 = alloca i8, align 1
  %10 = alloca i8, align 1
  %11 = alloca %class.ll_printer, align 8
  store ptr %0, ptr %6, align 8, !tbaa !3
  store ptr %1, ptr %7, align 8, !tbaa !8
  store ptr %2, ptr %8, align 8, !tbaa !10
  %12 = zext i1 %3 to i8
  store i8 %12, ptr %9, align 1, !tbaa !12
  %13 = zext i1 %4 to i8
  store i8 %13, ptr %10, align 1, !tbaa !12
  call void @llvm.lifetime.start.p0(i64 72, ptr %11) #3
  %14 = load ptr, ptr %6, align 8, !tbaa !3
  %15 = load ptr, ptr %7, align 8, !tbaa !8
  %16 = load ptr, ptr %8, align 8, !tbaa !10
  %17 = load i8, ptr %9, align 1, !tbaa !12, !range !14, !noundef !15
  %18 = trunc i8 %17 to i1
  %19 = load i8, ptr %10, align 1, !tbaa !12, !range !14, !noundef !15
  %20 = trunc i8 %19 to i1
  call void @_ZN10ll_printerC2ERSoR11ast_managerP3astbb(ptr noundef nonnull align 8 dereferenceable(72) %11, ptr noundef nonnull align 8 dereferenceable(8) %14, ptr noundef nonnull align 8 dereferenceable(976) %15, ptr noundef %16, i1 noundef zeroext %18, i1 noundef zeroext %20)
  %21 = load ptr, ptr %8, align 8, !tbaa !10
  call void @_ZN10ll_printer2ppEP3ast(ptr noundef nonnull align 8 dereferenceable(72) %11, ptr noundef %21)
  call void @llvm.lifetime.end.p0(i64 72, ptr %11) #3
  ret void
}