; Function Attrs: mustprogress uwtable
define hidden void @_Z9ast_ll_ppRSoR11ast_managerP3astbb(ptr noundef nonnull align 8 dereferenceable(8) %0, ptr noundef nonnull align 8 dereferenceable(976) %1, ptr noundef %2, i1 noundef zeroext %3, i1 noundef zeroext %4) local_unnamed_addr #3 {
  %6 = alloca %class.ll_printer, align 8
  call void @llvm.lifetime.start.p0(i64 72, ptr nonnull %6) #19
  %7 = zext i1 %3 to i8
  %8 = zext i1 %4 to i8
  store ptr %0, ptr %6, align 8, !tbaa !3
  %9 = getelementptr inbounds nuw i8, ptr %6, i64 8
  store ptr %1, ptr %9, align 8, !tbaa !8
  %10 = getelementptr inbounds nuw i8, ptr %6, i64 16
  store ptr %2, ptr %10, align 8, !tbaa !10
  %11 = getelementptr inbounds nuw i8, ptr %6, i64 24
  store i8 %7, ptr %11, align 8, !tbaa !19
  %12 = getelementptr inbounds nuw i8, ptr %6, i64 25
  store i8 %8, ptr %12, align 1, !tbaa !20
  %13 = getelementptr inbounds nuw i8, ptr %6, i64 32
  call void @_ZN10arith_utilC1ER11ast_manager(ptr noundef nonnull align 8 dereferenceable(16) %13, ptr noundef nonnull align 8 dereferenceable(976) %1)
  %14 = getelementptr inbounds nuw i8, ptr %6, i64 48
  call void @_ZN8datatype4utilC1ER11ast_manager(ptr noundef nonnull align 8 dereferenceable(24) %14, ptr noundef nonnull align 8 dereferenceable(976) %1)
  call void @_ZN10ll_printer2ppEP3ast(ptr noundef nonnull align 8 dereferenceable(72) %6, ptr noundef %2)
  call void @llvm.lifetime.end.p0(i64 72, ptr nonnull %6) #19
  ret void
}